target datalayout = "e-m:e-p270:32:32-p271:32:32-p272:64:64-i64:64-i128:128-f80:128-n8:16:32:64-S128"
target triple = "x86_64-pc-linux-gnu"

%struct.slurm_conf_t = type { i64, ptr, i16, ptr, ptr, ptr, ptr, ptr, i16, ptr, ptr, ptr, ptr, ptr, ptr, ptr, i16, ptr, ptr, ptr, ptr, i16, ptr, ptr, ptr, i64, ptr, ptr, ptr, ptr, i16, ptr, ptr, i16, i32, ptr, i32, ptr, i32, i32, ptr, ptr, i64, i64, ptr, i16, i16, ptr, i32, i32, ptr, i32, ptr, i32, i16, i16, i16, ptr, i16, i16, ptr, ptr, i32, i16, i16, ptr, i32, i16, ptr, ptr, ptr, ptr, i16, ptr, ptr, ptr, ptr, i32, ptr, ptr, ptr, ptr, i16, i16, ptr, i32, i32, i32, i16, i16, ptr, ptr, i16, ptr, ptr, i32, i32, i32, i32, i32, i64, i32, i32, i16, ptr, ptr, i32, ptr, ptr, ptr, i16, i32, ptr, ptr, i16, ptr, ptr, i32, i16, ptr, ptr, ptr, ptr, i32, i32, i16, i16, i32, ptr, i16, ptr, i32, i32, i32, i32, i32, i32, ptr, i16, ptr, ptr, i32, i16, ptr, i32, i16, i16, ptr, ptr, ptr, i16, ptr, ptr, ptr, ptr, i16, i16, ptr, i16, ptr, i16, ptr, i16, ptr, i16, ptr, ptr, ptr, ptr, i16, ptr, ptr, ptr, i32, ptr, i32, ptr, ptr, i16, ptr, ptr, i32, i16, ptr, ptr, i16, i16, ptr, i16, ptr, ptr, ptr, i32, ptr, i16, i16, ptr, ptr, ptr, ptr, ptr, ptr, ptr, ptr, i16, i32, i16, ptr, ptr, ptr, ptr, i32, ptr, ptr, ptr, i16, ptr, ptr, ptr, i16, ptr, i16, ptr, i16, i16, ptr }

@plugin_type = dso_local constant [22 x i8] c"node_features/helpers\00", align 16
@allowed_uid = internal global ptr null, align 8
@allowed_uid_cnt = internal global i32 0, align 4
@slurm_conf = external global %struct.slurm_conf_t, align 8
@.str.16 = private unnamed_addr constant [69 x i8] c"%s: %s: NODE_FEATURES: UID %u is not allowed to update node features\00", align 1
@__func__.node_features_p_user_update = private unnamed_addr constant [28 x i8] c"node_features_p_user_update\00", align 1

; Function Attrs: nounwind uwtable
define dso_local zeroext i1 @node_features_p_user_update(i32 noundef %0) #0 {
  %2 = alloca i1, align 1
  %3 = alloca i32, align 4
  %4 = alloca i32, align 4
  %5 = alloca i32, align 4
  store i32 %0, ptr %3, align 4
  %6 = load i32, ptr @allowed_uid_cnt, align 4
  %7 = icmp eq i32 %6, 0
  br i1 %7, label %8, label %9

8:                                                ; preds = %1
  store i1 true, ptr %2, align 1
  br label %45

9:                                                ; preds = %1
  call void @llvm.lifetime.start.p0(i64 4, ptr %4) #8
  store i32 0, ptr %4, align 4
  br label %10

10:                                               ; preds = %25, %9
  %11 = load i32, ptr %4, align 4
  %12 = load i32, ptr @allowed_uid_cnt, align 4
  %13 = icmp slt i32 %11, %12
  br i1 %13, label %15, label %14

14:                                               ; preds = %10
  store i32 2, ptr %5, align 4
  br label %28

15:                                               ; preds = %10
  %16 = load ptr, ptr @allowed_uid, align 8
  %17 = load i32, ptr %4, align 4
  %18 = sext i32 %17 to i64
  %19 = getelementptr inbounds i32, ptr %16, i64 %18
  %20 = load i32, ptr %19, align 4
  %21 = load i32, ptr %3, align 4
  %22 = icmp eq i32 %20, %21
  br i1 %22, label %23, label %24

23:                                               ; preds = %15
  store i1 true, ptr %2, align 1
  store i32 1, ptr %5, align 4
  br label %28

24:                                               ; preds = %15
  br label %25

25:                                               ; preds = %24
  %26 = load i32, ptr %4, align 4
  %27 = add nsw i32 %26, 1
  store i32 %27, ptr %4, align 4
  br label %10, !llvm.loop !17

28:                                               ; preds = %23, %14
  call void @llvm.lifetime.end.p0(i64 4, ptr %4) #8
  %29 = load i32, ptr %5, align 4
  switch i32 %29, label %47 [
    i32 2, label %30
    i32 1, label %45
  ]

30:                                               ; preds = %28
  br label %31

31:                                               ; preds = %30
  %32 = load i64, ptr getelementptr inbounds nuw (%struct.slurm_conf_t, ptr @slurm_conf, i32 0, i32 42), align 8
  %33 = and i64 %32, 140737488355328
  %34 = icmp ne i64 %33, 0
  br i1 %34, label %35, label %43

35:                                               ; preds = %31
  br label %36

36:                                               ; preds = %35
  %37 = call i32 @get_log_level()
  %38 = icmp sge i32 %37, 4
  br i1 %38, label %39, label %41

39:                                               ; preds = %36
  %40 = load i32, ptr %3, align 4
  call void (i32, ptr, ...) @log_var(i32 noundef 4, ptr noundef @.str.16, ptr noundef @plugin_type, ptr noundef @__func__.node_features_p_user_update, i32 noundef %40)
  br label %41

41:                                               ; preds = %39, %36
  br label %42

42:                                               ; preds = %41
  br label %43

43:                                               ; preds = %42, %31
  br label %44

44:                                               ; preds = %43
  store i1 false, ptr %2, align 1
  br label %45

45:                                               ; preds = %44, %28, %8
  %46 = load i1, ptr %2, align 1
  ret i1 %46

47:                                               ; preds = %28
  unreachable
}