; Function Attrs: nounwind uwtable
define dso_local noundef zeroext i1 @node_features_p_user_update(i32 noundef %0) local_unnamed_addr #0 {
  %2 = load i32, ptr @allowed_uid_cnt, align 4
  %3 = icmp eq i32 %2, 0
  br i1 %3, label %.loopexit, label %.preheader

.preheader:                                       ; preds = %1
  %4 = icmp sgt i32 %2, 0
  br i1 %4, label %.lr.ph, label %._crit_edge

.lr.ph:                                           ; preds = %.preheader
  %5 = load ptr, ptr @allowed_uid, align 8
  %wide.trip.count = zext nneg i32 %2 to i64
  br label %7

6:                                                ; preds = %7
  %indvars.iv.next = add nuw nsw i64 %indvars.iv, 1
  %exitcond.not = icmp eq i64 %indvars.iv.next, %wide.trip.count
  br i1 %exitcond.not, label %._crit_edge, label %7, !llvm.loop !19

7:                                                ; preds = %.lr.ph, %6
  %indvars.iv = phi i64 [ 0, %.lr.ph ], [ %indvars.iv.next, %6 ]
  %8 = getelementptr inbounds nuw i32, ptr %5, i64 %indvars.iv
  %9 = load i32, ptr %8, align 4
  %10 = icmp eq i32 %9, %0
  br i1 %10, label %.loopexit, label %6

._crit_edge:                                      ; preds = %6, %.preheader
  %11 = load i64, ptr getelementptr inbounds nuw (i8, ptr @slurm_conf, i64 320), align 8
  %12 = and i64 %11, 140737488355328
  %.not = icmp eq i64 %12, 0
  br i1 %.not, label %.loopexit, label %13

13:                                               ; preds = %._crit_edge
  %14 = tail call i32 @get_log_level() #10
  %15 = icmp sgt i32 %14, 3
  br i1 %15, label %16, label %.loopexit

16:                                               ; preds = %13
  tail call void (i32, ptr, ...) @log_var(i32 noundef 4, ptr noundef nonnull @.str.16, ptr noundef nonnull @plugin_type, ptr noundef nonnull @__func__.node_features_p_user_update, i32 noundef %0) #10
  br label %.loopexit

.loopexit:                                        ; preds = %7, %16, %13, %._crit_edge, %1
  %.07 = phi i1 [ true, %1 ], [ false, %._crit_edge ], [ false, %13 ], [ false, %16 ], [ true, %7 ]
  ret i1 %.07
}